target datalayout = "e-m:e-p270:32:32-p271:32:32-p272:64:64-i64:64-i128:128-f80:128-n8:16:32:64-S128"
target triple = "x86_64-pc-linux-gnu"

%struct.SlruCtlData = type { ptr, i16, i8, i32, ptr, [64 x i8] }
%struct.FileTag = type { i16, i16, %struct.RelFileLocator, i64 }
%struct.RelFileLocator = type { i32, i32, i32 }

@.str.5 = private unnamed_addr constant [11 x i8] c"%s/%015llX\00", align 1
@.str.6 = private unnamed_addr constant [8 x i8] c"%s/%04X\00", align 1
@my_wait_event_info = external global ptr, align 8

; Function Attrs: inlinehint nounwind uwtable
define internal void @pgstat_report_wait_end() #4 {
  %1 = load ptr, ptr @my_wait_event_info, align 8
  store volatile i32 0, ptr %1, align 4
  ret void
}

; Function Attrs: inlinehint nounwind uwtable
define internal void @pgstat_report_wait_start(i32 noundef %0) #4 {
  %2 = alloca i32, align 4
  store i32 %0, ptr %2, align 4
  %3 = load i32, ptr %2, align 4
  %4 = load ptr, ptr @my_wait_event_info, align 8
  store volatile i32 %3, ptr %4, align 4
  ret void
}

; Function Attrs: inlinehint nounwind uwtable
define internal i32 @SlruFileName(ptr noundef %0, ptr noundef %1, i64 noundef %2) #4 {
  %4 = alloca i32, align 4
  %5 = alloca ptr, align 8
  %6 = alloca ptr, align 8
  %7 = alloca i64, align 8
  store ptr %0, ptr %5, align 8
  store ptr %1, ptr %6, align 8
  store i64 %2, ptr %7, align 8
  %8 = load ptr, ptr %5, align 8
  %9 = getelementptr inbounds nuw %struct.SlruCtlData, ptr %8, i32 0, i32 2
  %10 = load i8, ptr %9, align 2, !range !4, !noundef !5
  %11 = trunc i8 %10 to i1
  br i1 %11, label %12, label %19

12:                                               ; preds = %3
  %13 = load ptr, ptr %6, align 8
  %14 = load ptr, ptr %5, align 8
  %15 = getelementptr inbounds nuw %struct.SlruCtlData, ptr %14, i32 0, i32 5
  %16 = getelementptr inbounds [64 x i8], ptr %15, i64 0, i64 0
  %17 = load i64, ptr %7, align 8
  %18 = call i32 (ptr, i64, ptr, ...) @pg_snprintf(ptr noundef %13, i64 noundef 1024, ptr noundef @.str.5, ptr noundef %16, i64 noundef %17)
  store i32 %18, ptr %4, align 4
  br label %27

19:                                               ; preds = %3
  %20 = load ptr, ptr %6, align 8
  %21 = load ptr, ptr %5, align 8
  %22 = getelementptr inbounds nuw %struct.SlruCtlData, ptr %21, i32 0, i32 5
  %23 = getelementptr inbounds [64 x i8], ptr %22, i64 0, i64 0
  %24 = load i64, ptr %7, align 8
  %25 = trunc i64 %24 to i32
  %26 = call i32 (ptr, i64, ptr, ...) @pg_snprintf(ptr noundef %20, i64 noundef 1024, ptr noundef @.str.6, ptr noundef %23, i32 noundef %25)
  store i32 %26, ptr %4, align 4
  br label %27

27:                                               ; preds = %19, %12
  %28 = load i32, ptr %4, align 4
  ret i32 %28
}

; Function Attrs: nounwind uwtable
define dso_local i32 @SlruSyncFileTag(ptr noundef %0, ptr noundef %1, ptr noundef %2) #0 {
  %4 = alloca i32, align 4
  %5 = alloca ptr, align 8
  %6 = alloca ptr, align 8
  %7 = alloca ptr, align 8
  %8 = alloca i32, align 4
  %9 = alloca i32, align 4
  %10 = alloca i32, align 4
  %11 = alloca i32, align 4
  store ptr %0, ptr %5, align 8
  store ptr %1, ptr %6, align 8
  store ptr %2, ptr %7, align 8
  call void @llvm.lifetime.start.p0(i64 4, ptr %8) #9
  call void @llvm.lifetime.start.p0(i64 4, ptr %9) #9
  call void @llvm.lifetime.start.p0(i64 4, ptr %10) #9
  %12 = load ptr, ptr %5, align 8
  %13 = load ptr, ptr %7, align 8
  %14 = load ptr, ptr %6, align 8
  %15 = getelementptr inbounds nuw %struct.FileTag, ptr %14, i32 0, i32 3
  %16 = load i64, ptr %15, align 8
  %17 = call i32 @SlruFileName(ptr noundef %12, ptr noundef %13, i64 noundef %16)
  %18 = load ptr, ptr %7, align 8
  %19 = call i32 @OpenTransientFile(ptr noundef %18, i32 noundef 2)
  store i32 %19, ptr %8, align 4
  %20 = load i32, ptr %8, align 4
  %21 = icmp slt i32 %20, 0
  br i1 %21, label %22, label %23

22:                                               ; preds = %3
  store i32 -1, ptr %4, align 4
  store i32 1, ptr %11, align 4
  br label %33

23:                                               ; preds = %3
  call void @pgstat_report_wait_start(i32 noundef 167772206)
  %24 = load i32, ptr %8, align 4
  %25 = call i32 @pg_fsync(i32 noundef %24)
  store i32 %25, ptr %10, align 4
  call void @pgstat_report_wait_end()
  %26 = call ptr @__errno_location() #10
  %27 = load i32, ptr %26, align 4
  store i32 %27, ptr %9, align 4
  %28 = load i32, ptr %8, align 4
  %29 = call i32 @CloseTransientFile(i32 noundef %28)
  %30 = load i32, ptr %9, align 4
  %31 = call ptr @__errno_location() #10
  store i32 %30, ptr %31, align 4
  %32 = load i32, ptr %10, align 4
  store i32 %32, ptr %4, align 4
  store i32 1, ptr %11, align 4
  br label %33

33:                                               ; preds = %23, %22
  call void @llvm.lifetime.end.p0(i64 4, ptr %10) #9
  call void @llvm.lifetime.end.p0(i64 4, ptr %9) #9
  call void @llvm.lifetime.end.p0(i64 4, ptr %8) #9
  %34 = load i32, ptr %4, align 4
  ret i32 %34
}