; Function Attrs: nounwind uwtable
define dso_local i32 @SlruSyncFileTag(ptr noundef %0, ptr noundef readonly captures(none) %1, ptr noundef %2) local_unnamed_addr #3 {
  %4 = getelementptr inbounds nuw i8, ptr %1, i64 16
  %5 = load i64, ptr %4, align 8
  %6 = getelementptr inbounds nuw i8, ptr %0, i64 10
  %7 = load i8, ptr %6, align 2, !range !4, !noundef !5
  %8 = trunc nuw i8 %7 to i1
  %9 = getelementptr inbounds nuw i8, ptr %0, i64 24
  br i1 %8, label %10, label %12

10:                                               ; preds = %3
  %11 = tail call i32 (ptr, i64, ptr, ...) @pg_snprintf(ptr noundef %2, i64 noundef 1024, ptr noundef nonnull @.str.5, ptr noundef nonnull %9, i64 noundef %5) #15
  br label %SlruFileName.exit

12:                                               ; preds = %3
  %13 = trunc i64 %5 to i32
  %14 = tail call i32 (ptr, i64, ptr, ...) @pg_snprintf(ptr noundef %2, i64 noundef 1024, ptr noundef nonnull @.str.6, ptr noundef nonnull %9, i32 noundef %13) #15
  br label %SlruFileName.exit

SlruFileName.exit:                                ; preds = %10, %12
  %15 = tail call i32 @OpenTransientFile(ptr noundef %2, i32 noundef 2) #15
  %16 = icmp slt i32 %15, 0
  br i1 %16, label %24, label %17

17:                                               ; preds = %SlruFileName.exit
  %18 = load ptr, ptr @my_wait_event_info, align 8
  store volatile i32 167772206, ptr %18, align 4
  %19 = tail call i32 @pg_fsync(i32 noundef %15) #15
  %20 = load ptr, ptr @my_wait_event_info, align 8
  store volatile i32 0, ptr %20, align 4
  %21 = tail call ptr @__errno_location() #16
  %22 = load i32, ptr %21, align 4
  %23 = tail call i32 @CloseTransientFile(i32 noundef %15) #15
  store i32 %22, ptr %21, align 4
  br label %24

24:                                               ; preds = %SlruFileName.exit, %17
  %.0 = phi i32 [ %19, %17 ], [ -1, %SlruFileName.exit ]
  ret i32 %.0
}